Certificate:
    Data:
        Version: 3 (0x2)
        Serial Number:
            d2:b9:d4:3a:9a:c6:c1:74:ff:a4:d7:34:0f:43:53:da
        Signature Algorithm: sha256WithRSAEncryption
        Issuer: CN=Easy-RSA CA
        Validity
            Not Before: Dec 30 08:39:46 2023 GMT
            Not After : Dec  6 08:39:46 2123 GMT
        Subject: CN=paclient406
        Subject Public Key Info:
            Public Key Algorithm: rsaEncryption
                Public-Key: (2048 bit)
                Modulus:
                    00:ee:08:e2:12:48:26:d5:5f:fa:00:d1:5e:f9:7b:
                    31:f2:f7:fe:97:c1:2a:1e:28:04:8a:92:5f:c0:e6:
                    18:e2:28:c3:06:2b:4d:0e:9b:e5:94:9a:b6:d7:84:
                    d6:87:ac:2f:f9:39:f3:b9:58:94:7c:8f:a1:0c:b2:
                    84:b8:d2:58:fc:3d:14:6e:c4:c6:91:eb:d8:03:9c:
                    8e:b8:5a:e4:4f:86:78:b8:13:73:37:59:42:e2:4f:
                    0d:00:d4:48:63:31:45:ac:7d:54:d6:e0:7e:3c:21:
                    01:dc:b4:dc:90:8a:40:25:db:d4:8e:b1:b2:de:39:
                    90:db:13:ea:af:9e:98:50:76:6a:62:25:4e:2b:23:
                    dd:43:06:57:70:69:73:da:52:70:0f:43:7e:43:79:
                    c3:5d:5b:ad:04:93:f0:77:0b:a3:a4:21:0c:7c:69:
                    3a:84:25:4b:86:ca:18:d6:54:5f:c4:77:e8:91:2e:
                    6a:cd:f0:24:1e:f1:cd:7e:81:32:75:bd:5e:88:0f:
                    e8:f9:74:c4:c0:0a:18:d6:40:f4:ef:bb:84:74:41:
                    e8:95:8c:34:97:4e:b5:1a:80:1b:a2:27:90:82:b3:
                    c3:4b:65:a9:4c:15:e7:fd:9e:eb:a6:8d:cb:f5:59:
                    69:94:08:2c:51:1d:74:b2:c7:07:90:7c:4a:4f:e5:
                    bb:4d
                Exponent: 65537 (0x10001)
        X509v3 extensions:
            X509v3 Basic Constraints: 
                CA:FALSE
            X509v3 Subject Key Identifier: 
                2F:6D:3E:1E:23:FC:4F:55:36:7B:BF:0D:FF:14:E4:FC:FE:49:DB:AC
            X509v3 Authority Key Identifier: 
                keyid:8D:69:A0:AD:D2:93:9F:B9:90:98:C4:35:27:66:1F:63:5B:01:88:A8
                DirName:/CN=Easy-RSA CA
                serial:64:9B:9F:A2:17:F2:04:81:2E:93:C7:9E:59:1F:DF:1F:CB:5B:0B:B6
            X509v3 Extended Key Usage: 
                TLS Web Client Authentication
            X509v3 Key Usage: 
                Digital Signature
    Signature Algorithm: sha256WithRSAEncryption
    Signature Value:
        99:40:02:9f:c8:45:0e:4d:6b:86:23:63:fb:75:49:1e:05:d5:
        64:43:e1:23:c3:15:b5:8a:62:1b:05:63:4f:a9:ef:43:3b:fa:
        0d:5a:1f:52:67:b3:18:4e:d5:60:84:1e:ff:34:3c:88:76:05:
        dd:ce:c6:b5:7e:92:e3:31:78:75:ee:e8:e7:25:35:54:50:f2:
        53:2d:76:0c:02:8a:b6:71:f5:0b:85:1f:cf:15:d8:50:1e:36:
        e9:5e:ef:2d:27:c7:8d:1b:e3:d9:8e:35:dd:eb:1f:4c:3c:82:
        cf:60:2c:c0:85:62:f0:fe:c6:f2:2e:41:33:58:40:15:8d:62:
        41:59:03:74:e4:0c:5b:33:82:d5:05:42:75:6c:3f:1d:82:92:
        9c:9e:92:3a:a1:a6:e8:46:bf:61:e1:6b:db:f4:cb:5e:5a:f1:
        bf:63:33:68:b0:dd:82:6d:4b:2b:bc:62:f7:d1:07:26:6d:2f:
        85:8b:21:21:2a:71:33:58:7c:3f:59:20:9b:84:80:b5:25:21:
        75:e8:6b:f8:e1:ff:78:47:60:41:93:af:31:37:65:95:52:2d:
        6a:23:3e:a2:f3:a1:df:a8:1f:91:2e:18:d0:1f:90:98:cc:71:
        c9:41:99:f7:ec:b3:00:79:6d:24:34:30:5b:4c:72:ee:d2:73:
        e8:04:93:b9
-----BEGIN CERTIFICATE-----
MIIDXDCCAkSgAwIBAgIRANK51DqaxsF0/6TXNA9DU9owDQYJKoZIhvcNAQELBQAw
FjEUMBIGA1UEAwwLRWFzeS1SU0EgQ0EwIBcNMjMxMjMwMDgzOTQ2WhgPMjEyMzEy
MDYwODM5NDZaMBYxFDASBgNVBAMMC3BhY2xpZW50NDA2MIIBIjANBgkqhkiG9w0B
AQEFAAOCAQ8AMIIBCgKCAQEA7gjiEkgm1V/6ANFe+Xsx8vf+l8EqHigEipJfwOYY
4ijDBitNDpvllJq214TWh6wv+TnzuViUfI+hDLKEuNJY/D0UbsTGkevYA5yOuFrk
T4Z4uBNzN1lC4k8NANRIYzFFrH1U1uB+PCEB3LTckIpAJdvUjrGy3jmQ2xPqr56Y
UHZqYiVOKyPdQwZXcGlz2lJwD0N+Q3nDXVutBJPwdwujpCEMfGk6hCVLhsoY1lRf
xHfokS5qzfAkHvHNfoEydb1eiA/o+XTEwAoY1kD077uEdEHolYw0l061GoAboieQ
grPDS2WpTBXn/Z7rpo3L9VlplAgsUR10sscHkHxKT+W7TQIDAQABo4GiMIGfMAkG
A1UdEwQCMAAwHQYDVR0OBBYEFC9tPh4j/E9VNnu/Df8U5Pz+SdusMFEGA1UdIwRK
MEiAFI1poK3Sk5+5kJjENSdmH2NbAYiooRqkGDAWMRQwEgYDVQQDDAtFYXN5LVJT
QSBDQYIUZJufohfyBIEuk8eeWR/fH8tbC7YwEwYDVR0lBAwwCgYIKwYBBQUHAwIw
CwYDVR0PBAQDAgeAMA0GCSqGSIb3DQEBCwUAA4IBAQCZQAKfyEUOTWuGI2P7dUke
BdVkQ+EjwxW1imIbBWNPqe9DO/oNWh9SZ7MYTtVghB7/NDyIdgXdzsa1fpLjMXh1
7ujnJTVUUPJTLXYMAoq2cfULhR/PFdhQHjbpXu8tJ8eNG+PZjjXd6x9MPILPYCzA
hWLw/sbyLkEzWEAVjWJBWQN05AxbM4LVBUJ1bD8dgpKcnpI6oaboRr9h4Wvb9Mte
WvG/YzNosN2CbUsrvGL30QcmbS+FiyEhKnEzWHw/WSCbhIC1JSF16Gv44f94R2BB
k68xN2WVUi1qIz6i86HfqB+RLhjQH5CYzHHJQZn37LMAeW0kNDBbTHLu0nPoBJO5
-----END CERTIFICATE-----
