Certificate:
    Data:
        Version: 3 (0x2)
        Serial Number:
            b5:d2:e3:7c:f7:67:ed:25:29:69:f2:dd:d8:bc:72:4b
        Signature Algorithm: sha256WithRSAEncryption
        Issuer: CN=Easy-RSA CA
        Validity
            Not Before: Jan 19 13:32:17 2024 GMT
            Not After : Dec 26 13:32:17 2123 GMT
        Subject: CN=paclientlarry
        Subject Public Key Info:
            Public Key Algorithm: rsaEncryption
                Public-Key: (2048 bit)
                Modulus:
                    00:b3:a3:7b:a1:15:76:4c:0d:72:6f:51:07:16:b8:
                    47:3c:57:6d:df:4a:a7:9a:1a:f0:3a:dc:93:d7:f7:
                    21:7b:ec:b4:5c:3f:b0:b5:0b:87:b2:0d:15:30:a6:
                    54:a6:1b:f9:7a:a4:85:30:80:6d:4f:a2:4b:30:bb:
                    d8:6e:ed:b6:96:7b:d4:a1:39:11:a7:a1:ba:cf:20:
                    cc:1d:8e:8f:ea:f1:b2:f2:f3:cc:d4:62:d8:ad:0f:
                    36:d9:71:0b:13:96:7c:30:ed:8f:e1:1d:f9:5d:c3:
                    80:d5:4e:01:1a:7d:c1:5a:9f:8e:f1:bb:94:81:f0:
                    93:0c:48:10:23:38:9f:e7:86:6d:fd:12:41:b5:38:
                    71:33:4d:05:e5:9c:ef:c4:bc:2c:2c:5d:5f:f3:53:
                    b5:73:88:94:be:15:67:8d:07:55:5d:a7:d0:3d:f1:
                    ee:e4:6d:7b:a6:d3:10:ce:b3:bd:89:66:22:21:5b:
                    ff:67:f5:09:63:43:eb:9e:1a:76:6c:18:02:a1:1e:
                    ac:bf:69:ad:b9:02:76:81:6a:72:e5:ca:e2:5a:f2:
                    8e:c4:ed:3c:55:1e:52:a6:00:1b:d4:cd:c0:89:8d:
                    8e:2c:be:6c:1b:5c:0c:0a:97:25:98:73:7b:d2:ec:
                    91:c7:66:5c:f9:2c:9e:95:42:f4:7b:0b:72:eb:e2:
                    6e:85
                Exponent: 65537 (0x10001)
        X509v3 extensions:
            X509v3 Basic Constraints: 
                CA:FALSE
            X509v3 Subject Key Identifier: 
                A3:A8:1E:B0:80:2F:45:94:6E:D6:EE:61:61:A2:20:5B:87:DE:5C:9F
            X509v3 Authority Key Identifier: 
                keyid:8D:69:A0:AD:D2:93:9F:B9:90:98:C4:35:27:66:1F:63:5B:01:88:A8
                DirName:/CN=Easy-RSA CA
                serial:64:9B:9F:A2:17:F2:04:81:2E:93:C7:9E:59:1F:DF:1F:CB:5B:0B:B6
            X509v3 Extended Key Usage: 
                TLS Web Client Authentication
            X509v3 Key Usage: 
                Digital Signature
    Signature Algorithm: sha256WithRSAEncryption
    Signature Value:
        42:61:57:0a:dd:1e:b7:e2:19:aa:2c:52:5c:cf:f9:70:21:37:
        66:1a:bb:47:e3:76:8f:af:fc:bd:6e:86:b8:69:da:da:2f:c6:
        c1:87:45:34:5b:5c:cc:be:74:4c:36:12:98:dc:32:57:ce:59:
        81:1f:bc:1a:f3:87:fd:49:df:93:80:b8:c4:e4:14:d6:46:d9:
        da:63:80:cd:43:a2:2f:30:40:fa:c6:4e:65:1f:8c:61:1a:82:
        50:7f:3c:00:cd:e5:f4:5f:54:05:3f:71:96:35:23:b0:0c:a8:
        61:f8:48:79:53:48:3c:68:22:b2:c2:1c:4b:e4:c4:20:5f:f6:
        12:20:ce:2f:a7:bb:f8:a0:dc:38:fb:31:08:73:15:63:92:ee:
        b1:10:5d:1c:8e:77:4a:da:83:dd:49:33:73:0a:31:59:88:49:
        e8:91:a8:80:fa:63:8e:e3:a4:b5:43:1a:9e:c0:53:2b:df:5e:
        0c:30:2a:f3:43:94:e1:80:06:6b:cc:da:c9:54:58:1d:0e:19:
        c8:be:ba:e1:72:48:23:a6:52:34:87:5a:3e:3f:14:56:59:c7:
        dc:c8:cd:2a:ee:9c:db:ac:66:ee:cd:dc:16:a3:09:52:27:25:
        e0:6b:4a:07:24:27:03:f0:50:96:3f:9c:d2:2b:59:cb:6e:ca:
        23:2f:0d:2e
-----BEGIN CERTIFICATE-----
MIIDXjCCAkagAwIBAgIRALXS43z3Z+0lKWny3di8ckswDQYJKoZIhvcNAQELBQAw
FjEUMBIGA1UEAwwLRWFzeS1SU0EgQ0EwIBcNMjQwMTE5MTMzMjE3WhgPMjEyMzEy
MjYxMzMyMTdaMBgxFjAUBgNVBAMMDXBhY2xpZW50bGFycnkwggEiMA0GCSqGSIb3
DQEBAQUAA4IBDwAwggEKAoIBAQCzo3uhFXZMDXJvUQcWuEc8V23fSqeaGvA63JPX
9yF77LRcP7C1C4eyDRUwplSmG/l6pIUwgG1Pokswu9hu7baWe9ShORGnobrPIMwd
jo/q8bLy88zUYtitDzbZcQsTlnww7Y/hHfldw4DVTgEafcFan47xu5SB8JMMSBAj
OJ/nhm39EkG1OHEzTQXlnO/EvCwsXV/zU7VziJS+FWeNB1Vdp9A98e7kbXum0xDO
s72JZiIhW/9n9QljQ+ueGnZsGAKhHqy/aa25AnaBanLlyuJa8o7E7TxVHlKmABvU
zcCJjY4svmwbXAwKlyWYc3vS7JHHZlz5LJ6VQvR7C3Lr4m6FAgMBAAGjgaIwgZ8w
CQYDVR0TBAIwADAdBgNVHQ4EFgQUo6gesIAvRZRu1u5hYaIgW4feXJ8wUQYDVR0j
BEowSIAUjWmgrdKTn7mQmMQ1J2YfY1sBiKihGqQYMBYxFDASBgNVBAMMC0Vhc3kt
UlNBIENBghRkm5+iF/IEgS6Tx55ZH98fy1sLtjATBgNVHSUEDDAKBggrBgEFBQcD
AjALBgNVHQ8EBAMCB4AwDQYJKoZIhvcNAQELBQADggEBAEJhVwrdHrfiGaosUlzP
+XAhN2Yau0fjdo+v/L1uhrhp2tovxsGHRTRbXMy+dEw2EpjcMlfOWYEfvBrzh/1J
35OAuMTkFNZG2dpjgM1Doi8wQPrGTmUfjGEaglB/PADN5fRfVAU/cZY1I7AMqGH4
SHlTSDxoIrLCHEvkxCBf9hIgzi+nu/ig3Dj7MQhzFWOS7rEQXRyOd0rag91JM3MK
MVmISeiRqID6Y47jpLVDGp7AUyvfXgwwKvNDlOGABmvM2slUWB0OGci+uuFySCOm
UjSHWj4/FFZZx9zIzSrunNusZu7N3BajCVInJeBrSgckJwPwUJY/nNIrWctuyiMv
DS4=
-----END CERTIFICATE-----
