Certificate:
    Data:
        Version: 3 (0x2)
        Serial Number:
            37:3d:11:f3:fe:a2:b9:8d:93:0b:e7:41:70:60:4e:1d
        Signature Algorithm: sha256WithRSAEncryption
        Issuer: CN=Easy-RSA CA
        Validity
            Not Before: Feb  5 04:22:09 2024 GMT
            Not After : Jan 12 04:22:09 2124 GMT
        Subject: CN=jienyclient1405
        Subject Public Key Info:
            Public Key Algorithm: rsaEncryption
                Public-Key: (2048 bit)
                Modulus:
                    00:d4:f9:08:07:7f:2e:a5:3e:01:91:2b:52:1e:a2:
                    45:6f:be:cc:01:09:3d:71:45:72:44:bf:9c:fa:27:
                    67:4c:3f:4a:f7:cf:ec:a5:d6:21:0c:2f:71:44:b1:
                    87:aa:85:f9:78:da:fd:c3:99:dd:28:14:d9:f8:c0:
                    f3:91:6f:00:a1:f1:cc:3e:8a:65:e6:9a:b7:ed:97:
                    52:10:ba:21:f7:2f:e0:e1:9e:d6:4a:12:7b:c5:86:
                    b0:fc:a5:96:c3:d4:bd:d6:f3:54:5c:9a:b9:db:18:
                    4d:5e:e3:de:ad:72:98:2d:91:e1:c6:e5:80:fc:34:
                    28:02:a3:5b:bb:b7:93:0c:22:e0:22:8f:28:f2:3a:
                    e4:62:e9:a1:07:a4:b8:6b:42:dc:1f:f0:55:e3:d8:
                    bd:d5:1c:f4:3a:62:e2:63:ff:bd:1c:6c:74:a7:4f:
                    c7:a7:71:16:a9:f1:a3:29:4a:76:89:76:d4:07:e9:
                    ff:77:65:48:7d:dc:9a:05:79:ba:9c:f5:f0:26:82:
                    a5:22:a4:5b:d7:cb:75:e2:a4:31:9e:ca:9e:55:e9:
                    b7:84:cc:17:e2:df:16:e5:2d:49:4a:d6:f7:bd:cc:
                    93:17:3a:c6:0a:0f:32:58:52:fa:8e:98:85:a2:30:
                    c5:93:3a:eb:c0:b6:68:5e:c6:97:01:ac:fe:9d:25:
                    02:59
                Exponent: 65537 (0x10001)
        X509v3 extensions:
            X509v3 Basic Constraints: 
                CA:FALSE
            X509v3 Subject Key Identifier: 
                87:0F:2E:57:DE:20:E2:5B:08:F7:D4:39:94:63:C9:D9:D6:79:71:57
            X509v3 Authority Key Identifier: 
                keyid:8D:69:A0:AD:D2:93:9F:B9:90:98:C4:35:27:66:1F:63:5B:01:88:A8
                DirName:/CN=Easy-RSA CA
                serial:64:9B:9F:A2:17:F2:04:81:2E:93:C7:9E:59:1F:DF:1F:CB:5B:0B:B6
            X509v3 Extended Key Usage: 
                TLS Web Client Authentication
            X509v3 Key Usage: 
                Digital Signature
    Signature Algorithm: sha256WithRSAEncryption
    Signature Value:
        17:d8:a3:7d:86:50:5e:18:5d:c2:b3:ae:5f:25:b0:b5:45:11:
        f6:46:fe:f1:7b:80:e3:04:de:22:07:1c:9e:4b:52:64:a1:e0:
        a4:49:53:dc:38:64:e6:61:7f:ff:d7:e6:9c:66:c2:f5:8c:d8:
        99:94:91:19:4c:74:cf:d0:91:b0:e6:1b:05:9e:09:04:95:ee:
        6d:77:52:0b:74:8e:92:97:82:29:56:1e:8f:ed:3d:d9:ba:45:
        5c:06:5c:12:fa:1a:0c:36:91:f6:94:e9:68:c9:1f:19:0e:d9:
        c3:29:16:8a:e6:f2:d7:3f:98:a7:2c:90:8a:e2:32:6e:1d:64:
        73:12:be:bc:85:ad:2a:63:b2:66:ee:94:36:b1:06:7c:71:02:
        29:ad:ad:66:ac:d0:3b:73:06:d1:88:43:33:4d:e9:cf:53:58:
        57:27:20:6c:ce:0b:53:eb:eb:c1:aa:dd:da:c2:a1:59:3a:6d:
        9b:22:ec:55:e4:14:ec:e8:d6:d4:4e:78:33:c7:77:73:9e:5e:
        ae:ee:c9:89:c5:4c:af:e4:f1:13:36:54:2b:3d:b5:85:f2:d5:
        15:0c:ff:f6:12:09:cc:73:7a:18:5b:a6:07:9c:72:17:9d:41:
        35:11:b6:dd:ff:5b:b2:39:35:7a:e7:4d:7d:17:96:6a:b3:69:
        0a:65:dc:ed
-----BEGIN CERTIFICATE-----
MIIDXzCCAkegAwIBAgIQNz0R8/6iuY2TC+dBcGBOHTANBgkqhkiG9w0BAQsFADAW
MRQwEgYDVQQDDAtFYXN5LVJTQSBDQTAgFw0yNDAyMDUwNDIyMDlaGA8yMTI0MDEx
MjA0MjIwOVowGjEYMBYGA1UEAwwPamllbnljbGllbnQxNDA1MIIBIjANBgkqhkiG
9w0BAQEFAAOCAQ8AMIIBCgKCAQEA1PkIB38upT4BkStSHqJFb77MAQk9cUVyRL+c
+idnTD9K98/spdYhDC9xRLGHqoX5eNr9w5ndKBTZ+MDzkW8AofHMPopl5pq37ZdS
ELoh9y/g4Z7WShJ7xYaw/KWWw9S91vNUXJq52xhNXuPerXKYLZHhxuWA/DQoAqNb
u7eTDCLgIo8o8jrkYumhB6S4a0LcH/BV49i91Rz0OmLiY/+9HGx0p0/Hp3EWqfGj
KUp2iXbUB+n/d2VIfdyaBXm6nPXwJoKlIqRb18t14qQxnsqeVem3hMwX4t8W5S1J
Stb3vcyTFzrGCg8yWFL6jpiFojDFkzrrwLZoXsaXAaz+nSUCWQIDAQABo4GiMIGf
MAkGA1UdEwQCMAAwHQYDVR0OBBYEFIcPLlfeIOJbCPfUOZRjydnWeXFXMFEGA1Ud
IwRKMEiAFI1poK3Sk5+5kJjENSdmH2NbAYiooRqkGDAWMRQwEgYDVQQDDAtFYXN5
LVJTQSBDQYIUZJufohfyBIEuk8eeWR/fH8tbC7YwEwYDVR0lBAwwCgYIKwYBBQUH
AwIwCwYDVR0PBAQDAgeAMA0GCSqGSIb3DQEBCwUAA4IBAQAX2KN9hlBeGF3Cs65f
JbC1RRH2Rv7xe4DjBN4iBxyeS1JkoeCkSVPcOGTmYX//1+acZsL1jNiZlJEZTHTP
0JGw5hsFngkEle5td1ILdI6Sl4IpVh6P7T3ZukVcBlwS+hoMNpH2lOloyR8ZDtnD
KRaK5vLXP5inLJCK4jJuHWRzEr68ha0qY7Jm7pQ2sQZ8cQIpra1mrNA7cwbRiEMz
TenPU1hXJyBszgtT6+vBqt3awqFZOm2bIuxV5BTs6NbUTngzx3dznl6u7smJxUyv
5PETNlQrPbWF8tUVDP/2EgnMc3oYW6YHnHIXnUE1Ebbd/1uyOTV65019F5Zqs2kK
Zdzt
-----END CERTIFICATE-----
