Certificate:
    Data:
        Version: 3 (0x2)
        Serial Number:
            39:9b:46:21:28:0d:63:7a:8e:fc:a8:f7:17:6b:36:c9
        Signature Algorithm: sha256WithRSAEncryption
        Issuer: CN=Easy-RSA CA
        Validity
            Not Before: Dec 30 08:41:23 2023 GMT
            Not After : Dec  6 08:41:23 2123 GMT
        Subject: CN=homeclientiphone15
        Subject Public Key Info:
            Public Key Algorithm: rsaEncryption
                Public-Key: (2048 bit)
                Modulus:
                    00:bb:6b:30:21:75:15:f4:99:d8:99:ec:ce:45:f0:
                    b9:a3:2f:3a:72:5d:c2:66:95:f3:8c:22:1d:7d:ad:
                    44:18:a4:1a:df:e0:b9:7b:a8:e6:5d:69:1b:3f:96:
                    4c:40:13:a8:d3:b6:4d:30:39:7a:84:7a:89:7c:a1:
                    a0:7f:d9:ab:6d:d6:66:b4:c4:7b:67:ec:d8:25:6e:
                    b9:c7:d6:96:00:5a:cb:c9:22:10:0f:e5:e1:1d:e3:
                    f7:0a:37:8d:a9:88:73:68:af:53:5d:3f:8e:d6:5e:
                    ad:8e:45:ce:f4:ec:91:96:36:07:1e:ae:96:35:40:
                    d6:2e:e9:9d:56:0b:c6:38:65:bf:8a:da:8f:3e:d0:
                    66:93:8e:54:93:9e:8a:b7:6d:33:77:a6:b7:77:1f:
                    4f:aa:e3:e3:b7:c7:e0:a0:5b:0a:25:b2:b5:44:01:
                    58:ba:48:d1:b4:d0:08:20:fc:09:7f:20:45:ea:8d:
                    71:10:c1:36:18:e9:cd:c1:00:48:30:38:3a:5d:d5:
                    58:49:50:ee:1a:b8:17:48:5e:05:a0:74:46:a4:81:
                    f9:e8:fd:a1:c5:7a:91:42:e4:9d:f1:d9:62:78:ed:
                    6b:f3:11:3b:99:b4:71:ef:ab:cd:06:7d:09:08:1f:
                    9b:22:09:07:e7:88:97:a1:92:44:4d:19:ba:e6:68:
                    bb:7b
                Exponent: 65537 (0x10001)
        X509v3 extensions:
            X509v3 Basic Constraints: 
                CA:FALSE
            X509v3 Subject Key Identifier: 
                DD:E1:6E:71:0C:70:CE:63:C4:43:C4:F6:7B:60:70:CC:DF:C1:91:66
            X509v3 Authority Key Identifier: 
                keyid:8D:69:A0:AD:D2:93:9F:B9:90:98:C4:35:27:66:1F:63:5B:01:88:A8
                DirName:/CN=Easy-RSA CA
                serial:64:9B:9F:A2:17:F2:04:81:2E:93:C7:9E:59:1F:DF:1F:CB:5B:0B:B6
            X509v3 Extended Key Usage: 
                TLS Web Client Authentication
            X509v3 Key Usage: 
                Digital Signature
    Signature Algorithm: sha256WithRSAEncryption
    Signature Value:
        50:00:72:e9:9c:db:fa:92:df:0f:98:9d:19:84:6d:76:01:17:
        aa:60:49:9c:14:bd:dd:4d:94:d8:5d:2b:0c:80:cb:3b:c6:84:
        4e:f6:54:59:72:78:69:ef:2f:ad:35:00:6f:33:9a:e0:bf:6a:
        9f:99:f1:25:df:a6:2a:da:ec:a5:2e:76:02:36:d6:61:96:24:
        69:d8:81:4f:b2:05:28:6e:30:c4:62:d6:37:7d:36:05:a8:17:
        7e:43:9f:6b:0b:d8:47:84:49:0f:f6:30:fa:06:0d:26:bf:62:
        1e:89:09:4c:89:b6:94:07:f3:14:f3:bb:f0:21:28:7f:e4:9d:
        3c:1f:41:54:b7:09:a0:35:09:d2:02:97:37:38:d1:e8:ea:35:
        c4:79:b3:01:49:89:4c:cd:56:88:93:2a:6d:74:0e:60:a9:80:
        f2:f1:2c:51:43:a4:0d:eb:9c:46:29:e2:5e:c7:d0:1a:6f:5c:
        e3:86:c9:61:93:6b:da:67:ab:bc:56:c9:66:f7:a7:af:b9:c2:
        03:65:b0:55:06:97:ff:d7:6d:13:88:e3:8a:38:b0:cb:99:7a:
        84:a3:71:e4:21:7c:d3:c8:61:96:49:60:df:d7:c6:03:7a:8b:
        1c:01:4d:9b:f8:66:1f:18:19:ea:69:b0:c2:9a:15:6f:40:1c:
        3a:01:16:07
-----BEGIN CERTIFICATE-----
MIIDYjCCAkqgAwIBAgIQOZtGISgNY3qO/Kj3F2s2yTANBgkqhkiG9w0BAQsFADAW
MRQwEgYDVQQDDAtFYXN5LVJTQSBDQTAgFw0yMzEyMzAwODQxMjNaGA8yMTIzMTIw
NjA4NDEyM1owHTEbMBkGA1UEAwwSaG9tZWNsaWVudGlwaG9uZTE1MIIBIjANBgkq
hkiG9w0BAQEFAAOCAQ8AMIIBCgKCAQEAu2swIXUV9JnYmezORfC5oy86cl3CZpXz
jCIdfa1EGKQa3+C5e6jmXWkbP5ZMQBOo07ZNMDl6hHqJfKGgf9mrbdZmtMR7Z+zY
JW65x9aWAFrLySIQD+XhHeP3CjeNqYhzaK9TXT+O1l6tjkXO9OyRljYHHq6WNUDW
LumdVgvGOGW/itqPPtBmk45Uk56Kt20zd6a3dx9PquPjt8fgoFsKJbK1RAFYukjR
tNAIIPwJfyBF6o1xEME2GOnNwQBIMDg6XdVYSVDuGrgXSF4FoHRGpIH56P2hxXqR
QuSd8dlieO1r8xE7mbRx76vNBn0JCB+bIgkH54iXoZJETRm65mi7ewIDAQABo4Gi
MIGfMAkGA1UdEwQCMAAwHQYDVR0OBBYEFN3hbnEMcM5jxEPE9ntgcMzfwZFmMFEG
A1UdIwRKMEiAFI1poK3Sk5+5kJjENSdmH2NbAYiooRqkGDAWMRQwEgYDVQQDDAtF
YXN5LVJTQSBDQYIUZJufohfyBIEuk8eeWR/fH8tbC7YwEwYDVR0lBAwwCgYIKwYB
BQUHAwIwCwYDVR0PBAQDAgeAMA0GCSqGSIb3DQEBCwUAA4IBAQBQAHLpnNv6kt8P
mJ0ZhG12AReqYEmcFL3dTZTYXSsMgMs7xoRO9lRZcnhp7y+tNQBvM5rgv2qfmfEl
36Yq2uylLnYCNtZhliRp2IFPsgUobjDEYtY3fTYFqBd+Q59rC9hHhEkP9jD6Bg0m
v2IeiQlMibaUB/MU87vwISh/5J08H0FUtwmgNQnSApc3ONHo6jXEebMBSYlMzVaI
kyptdA5gqYDy8SxRQ6QN65xGKeJex9Aab1zjhslhk2vaZ6u8Vslm96evucIDZbBV
Bpf/120TiOOKOLDLmXqEo3HkIXzTyGGWSWDf18YDeoscAU2b+GYfGBnqabDCmhVv
QBw6ARYH
-----END CERTIFICATE-----
