Certificate:
    Data:
        Version: 3 (0x2)
        Serial Number:
            70:29:40:61:27:25:4c:d9:14:5e:a1:20:8e:65:2e:12
        Signature Algorithm: sha256WithRSAEncryption
        Issuer: CN=Easy-RSA CA
        Validity
            Not Before: Feb  5 07:11:37 2024 GMT
            Not After : Jan 12 07:11:37 2124 GMT
        Subject: CN=paclient100
        Subject Public Key Info:
            Public Key Algorithm: rsaEncryption
                Public-Key: (2048 bit)
                Modulus:
                    00:c8:7e:4c:01:9f:4a:05:db:d4:fd:fd:09:7a:b0:
                    2f:23:c6:cf:bd:cf:7e:e1:2c:f4:ec:f5:2e:f4:87:
                    be:b3:db:cd:47:6b:16:c9:b7:e7:ab:7b:4b:ae:2d:
                    ce:2b:fd:53:73:67:23:e7:2c:d1:09:47:f5:c3:e7:
                    11:96:9d:9c:cb:68:db:66:3a:6e:42:2e:4c:48:d4:
                    e8:20:bd:ee:c8:75:75:5e:0e:12:c2:b3:4d:ff:9e:
                    3f:a9:08:d2:a1:e9:b7:62:0d:34:16:db:57:02:2f:
                    46:c7:c6:25:52:54:28:64:e2:0c:1a:8e:a8:18:c6:
                    2a:dc:39:86:fe:0a:7e:8b:a9:c5:9d:c7:f2:42:b5:
                    3d:a8:54:4d:c3:bd:4c:22:0b:2b:e7:cc:5a:f9:38:
                    a6:25:89:c4:31:98:9b:ce:24:6c:33:fd:66:6e:57:
                    71:14:3d:09:d6:52:f0:b3:93:27:b1:dc:7b:b3:5b:
                    66:28:03:1f:91:41:08:66:f5:9e:4c:20:da:a5:30:
                    13:a1:5f:27:57:fc:cb:cd:2b:3c:0c:f5:24:70:10:
                    ed:ef:5c:9b:e6:1b:42:c1:17:e7:1d:89:25:cd:ab:
                    3a:51:60:90:9e:82:c4:62:e4:fd:77:50:6d:d3:cf:
                    4a:65:27:bd:56:4b:a9:ce:75:13:5e:c7:37:bf:5e:
                    80:b7
                Exponent: 65537 (0x10001)
        X509v3 extensions:
            X509v3 Basic Constraints: 
                CA:FALSE
            X509v3 Subject Key Identifier: 
                7D:9C:3B:C6:E5:0C:E0:F0:60:BF:09:1E:B0:12:47:03:13:10:B3:F6
            X509v3 Authority Key Identifier: 
                keyid:8D:69:A0:AD:D2:93:9F:B9:90:98:C4:35:27:66:1F:63:5B:01:88:A8
                DirName:/CN=Easy-RSA CA
                serial:64:9B:9F:A2:17:F2:04:81:2E:93:C7:9E:59:1F:DF:1F:CB:5B:0B:B6
            X509v3 Extended Key Usage: 
                TLS Web Client Authentication
            X509v3 Key Usage: 
                Digital Signature
    Signature Algorithm: sha256WithRSAEncryption
    Signature Value:
        91:e5:33:17:6a:a3:63:b6:4c:a0:26:2a:9a:47:b4:18:5c:16:
        47:96:17:3b:55:ef:e1:17:2d:ce:1d:08:84:5f:7b:b4:35:40:
        2e:4a:36:f8:9b:3b:eb:03:b7:56:66:79:60:07:c3:9f:ed:b3:
        bd:f3:0e:c8:90:75:34:26:f8:89:fd:d9:f6:bc:86:6e:89:92:
        17:94:ba:5e:92:d2:7b:56:6d:62:ee:d6:0d:e2:82:3c:1d:5b:
        6a:75:83:04:b2:50:57:17:62:40:bb:89:0e:59:cb:03:2f:bd:
        55:89:41:71:d2:77:4b:f3:86:75:7c:c9:c2:bb:94:51:83:27:
        55:46:ce:90:a3:55:9b:5c:cc:f8:06:69:fc:b3:c7:14:bb:4d:
        89:3d:dd:44:01:bb:a7:25:ee:ef:98:d6:9e:b6:5f:90:56:3f:
        92:b5:6f:23:1b:1d:a8:dd:e9:32:c2:72:68:41:87:0b:6b:ce:
        3f:33:b5:ec:73:ea:3d:42:05:a9:7b:61:6e:e7:7f:2d:4e:0c:
        9b:fb:bd:dd:f6:69:e2:03:60:8a:24:92:cb:49:1d:f8:fc:71:
        e7:c7:38:d3:d9:64:3c:97:a2:33:bb:f7:63:9c:3b:3a:e3:38:
        4b:3c:8d:ee:93:23:00:56:e3:1c:e5:f5:cb:ee:1a:bf:74:d9:
        8f:e9:ec:0e
-----BEGIN CERTIFICATE-----
MIIDWzCCAkOgAwIBAgIQcClAYSclTNkUXqEgjmUuEjANBgkqhkiG9w0BAQsFADAW
MRQwEgYDVQQDDAtFYXN5LVJTQSBDQTAgFw0yNDAyMDUwNzExMzdaGA8yMTI0MDEx
MjA3MTEzN1owFjEUMBIGA1UEAwwLcGFjbGllbnQxMDAwggEiMA0GCSqGSIb3DQEB
AQUAA4IBDwAwggEKAoIBAQDIfkwBn0oF29T9/Ql6sC8jxs+9z37hLPTs9S70h76z
281HaxbJt+ere0uuLc4r/VNzZyPnLNEJR/XD5xGWnZzLaNtmOm5CLkxI1Oggve7I
dXVeDhLCs03/nj+pCNKh6bdiDTQW21cCL0bHxiVSVChk4gwajqgYxircOYb+Cn6L
qcWdx/JCtT2oVE3DvUwiCyvnzFr5OKYlicQxmJvOJGwz/WZuV3EUPQnWUvCzkyex
3HuzW2YoAx+RQQhm9Z5MINqlMBOhXydX/MvNKzwM9SRwEO3vXJvmG0LBF+cdiSXN
qzpRYJCegsRi5P13UG3Tz0plJ71WS6nOdRNexze/XoC3AgMBAAGjgaIwgZ8wCQYD
VR0TBAIwADAdBgNVHQ4EFgQUfZw7xuUM4PBgvwkesBJHAxMQs/YwUQYDVR0jBEow
SIAUjWmgrdKTn7mQmMQ1J2YfY1sBiKihGqQYMBYxFDASBgNVBAMMC0Vhc3ktUlNB
IENBghRkm5+iF/IEgS6Tx55ZH98fy1sLtjATBgNVHSUEDDAKBggrBgEFBQcDAjAL
BgNVHQ8EBAMCB4AwDQYJKoZIhvcNAQELBQADggEBAJHlMxdqo2O2TKAmKppHtBhc
FkeWFztV7+EXLc4dCIRfe7Q1QC5KNvibO+sDt1ZmeWAHw5/ts73zDsiQdTQm+In9
2fa8hm6JkheUul6S0ntWbWLu1g3igjwdW2p1gwSyUFcXYkC7iQ5ZywMvvVWJQXHS
d0vzhnV8ycK7lFGDJ1VGzpCjVZtczPgGafyzxxS7TYk93UQBu6cl7u+Y1p62X5BW
P5K1byMbHajd6TLCcmhBhwtrzj8ztexz6j1CBal7YW7nfy1ODJv7vd32aeIDYIok
kstJHfj8cefHONPZZDyXojO792OcOzrjOEs8je6TIwBW4xzl9cvuGr902Y/p7A4=
-----END CERTIFICATE-----
