Certificate:
    Data:
        Version: 3 (0x2)
        Serial Number:
            76:f8:3f:a0:3e:a3:63:b8:15:3e:16:4c:b4:96:05:08
        Signature Algorithm: sha256WithRSAEncryption
        Issuer: CN=Easy-RSA CA
        Validity
            Not Before: Dec 30 08:40:02 2023 GMT
            Not After : Dec  6 08:40:02 2123 GMT
        Subject: CN=homeserver
        Subject Public Key Info:
            Public Key Algorithm: rsaEncryption
                Public-Key: (2048 bit)
                Modulus:
                    00:ae:51:88:4d:79:c7:c9:8a:78:8a:55:cc:69:76:
                    81:11:35:cd:34:3d:5d:f4:00:53:e9:8c:f6:91:c6:
                    38:f3:15:2b:e6:92:7c:b0:38:6c:e3:47:aa:23:68:
                    00:25:78:c7:5a:06:3d:56:b2:93:e3:7d:be:a0:38:
                    24:ed:28:18:ca:bd:c2:96:b5:f5:06:7b:b5:4c:56:
                    fc:0d:54:0a:38:d6:b8:15:e8:5d:0d:49:34:8a:99:
                    f5:78:2b:6d:ed:13:a1:29:e9:38:93:b5:96:ca:72:
                    ca:8b:33:41:d9:e1:7d:f9:8f:3e:45:1e:32:83:21:
                    ba:5e:e4:ea:6d:6a:22:23:95:cc:1d:5d:69:32:ef:
                    2b:42:bb:bc:ba:f1:04:5e:3b:9d:5b:94:bd:c8:9b:
                    1d:1a:13:5d:e4:b1:ac:c1:48:39:b5:e0:f0:35:89:
                    16:a9:e3:f5:4b:de:f9:f4:7b:00:0c:72:4e:62:e0:
                    6b:2f:82:ff:56:26:35:76:df:59:26:cf:84:60:93:
                    28:3c:68:13:7e:92:ff:06:93:fc:43:d7:9e:48:18:
                    40:f1:25:92:a4:22:9b:ee:c8:9f:9c:f9:fd:3e:9e:
                    9e:5d:3c:2a:fe:06:87:67:47:0c:8c:26:57:10:7f:
                    e0:6f:3d:08:dd:4b:6e:89:1c:01:a8:21:d8:58:ba:
                    f7:f3
                Exponent: 65537 (0x10001)
        X509v3 extensions:
            X509v3 Basic Constraints: 
                CA:FALSE
            X509v3 Subject Key Identifier: 
                5D:43:69:9B:A1:04:3C:22:6C:7D:F8:33:CC:1A:80:D8:34:6F:9E:B8
            X509v3 Authority Key Identifier: 
                keyid:8D:69:A0:AD:D2:93:9F:B9:90:98:C4:35:27:66:1F:63:5B:01:88:A8
                DirName:/CN=Easy-RSA CA
                serial:64:9B:9F:A2:17:F2:04:81:2E:93:C7:9E:59:1F:DF:1F:CB:5B:0B:B6
            X509v3 Extended Key Usage: 
                TLS Web Server Authentication
            X509v3 Key Usage: 
                Digital Signature, Key Encipherment
            X509v3 Subject Alternative Name: 
                DNS:homeserver
    Signature Algorithm: sha256WithRSAEncryption
    Signature Value:
        15:99:60:1f:90:75:75:14:35:3f:96:09:05:cb:31:52:8b:c6:
        bb:53:de:d5:c0:3a:17:9d:f3:a8:e8:bc:8f:00:bb:51:84:27:
        25:31:dd:70:73:e5:52:ed:33:13:aa:2c:28:2e:7d:7e:5b:25:
        e6:69:42:37:b5:a1:4b:25:d5:18:5f:d0:64:66:0b:54:f0:f5:
        7b:3e:6f:c0:27:b7:8a:ab:36:f6:0b:37:8a:fe:cc:a7:b3:ac:
        12:08:ea:b8:f3:e1:8b:c6:cb:3b:90:f7:fa:c8:69:f1:ba:14:
        e0:7a:75:a2:74:53:b6:9d:d7:b6:41:51:0b:fe:aa:75:c3:bb:
        2c:cb:a4:f5:76:5c:4e:30:db:35:c0:49:9b:12:45:9e:ef:4e:
        38:1f:9a:2a:aa:bd:0b:44:36:5d:31:a2:69:26:b0:94:37:28:
        ce:2b:44:d3:b5:6f:d6:f9:9e:a5:a1:22:99:81:5e:67:9d:77:
        26:fd:41:8c:01:65:6f:83:63:b4:70:88:ad:72:7d:c0:af:ce:
        6f:10:77:9c:66:b9:0a:03:f0:57:e5:f9:a7:db:ca:70:b7:15:
        f6:2c:b5:c8:43:b4:18:10:52:29:db:7d:69:04:54:91:31:b0:
        a9:67:3a:cd:98:ae:22:0a:91:1c:3d:98:25:80:87:95:7d:50:
        ec:2c:9c:f8
-----BEGIN CERTIFICATE-----
MIIDcTCCAlmgAwIBAgIQdvg/oD6jY7gVPhZMtJYFCDANBgkqhkiG9w0BAQsFADAW
MRQwEgYDVQQDDAtFYXN5LVJTQSBDQTAgFw0yMzEyMzAwODQwMDJaGA8yMTIzMTIw
NjA4NDAwMlowFTETMBEGA1UEAwwKaG9tZXNlcnZlcjCCASIwDQYJKoZIhvcNAQEB
BQADggEPADCCAQoCggEBAK5RiE15x8mKeIpVzGl2gRE1zTQ9XfQAU+mM9pHGOPMV
K+aSfLA4bONHqiNoACV4x1oGPVayk+N9vqA4JO0oGMq9wpa19QZ7tUxW/A1UCjjW
uBXoXQ1JNIqZ9Xgrbe0ToSnpOJO1lspyyoszQdnhffmPPkUeMoMhul7k6m1qIiOV
zB1daTLvK0K7vLrxBF47nVuUvcibHRoTXeSxrMFIObXg8DWJFqnj9Uve+fR7AAxy
TmLgay+C/1YmNXbfWSbPhGCTKDxoE36S/waT/EPXnkgYQPElkqQim+7In5z5/T6e
nl08Kv4Gh2dHDIwmVxB/4G89CN1LbokcAagh2Fi69/MCAwEAAaOBuTCBtjAJBgNV
HRMEAjAAMB0GA1UdDgQWBBRdQ2mboQQ8Imx9+DPMGoDYNG+euDBRBgNVHSMESjBI
gBSNaaCt0pOfuZCYxDUnZh9jWwGIqKEapBgwFjEUMBIGA1UEAwwLRWFzeS1SU0Eg
Q0GCFGSbn6IX8gSBLpPHnlkf3x/LWwu2MBMGA1UdJQQMMAoGCCsGAQUFBwMBMAsG
A1UdDwQEAwIFoDAVBgNVHREEDjAMggpob21lc2VydmVyMA0GCSqGSIb3DQEBCwUA
A4IBAQAVmWAfkHV1FDU/lgkFyzFSi8a7U97VwDoXnfOo6LyPALtRhCclMd1wc+VS
7TMTqiwoLn1+WyXmaUI3taFLJdUYX9BkZgtU8PV7Pm/AJ7eKqzb2CzeK/syns6wS
COq48+GLxss7kPf6yGnxuhTgenWidFO2nde2QVEL/qp1w7ssy6T1dlxOMNs1wEmb
EkWe7044H5oqqr0LRDZdMaJpJrCUNyjOK0TTtW/W+Z6loSKZgV5nnXcm/UGMAWVv
g2O0cIitcn3Ar85vEHecZrkKA/BX5fmn28pwtxX2LLXIQ7QYEFIp231pBFSRMbCp
ZzrNmK4iCpEcPZglgIeVfVDsLJz4
-----END CERTIFICATE-----
