Certificate:
    Data:
        Version: 3 (0x2)
        Serial Number:
            9d:f0:61:f9:05:f1:3f:92:ba:0a:a6:e2:1c:d7:c3:92
        Signature Algorithm: sha256WithRSAEncryption
        Issuer: CN=Easy-RSA CA
        Validity
            Not Before: Dec 30 08:40:49 2023 GMT
            Not After : Dec  6 08:40:49 2123 GMT
        Subject: CN=homeclient_pa_windows
        Subject Public Key Info:
            Public Key Algorithm: rsaEncryption
                Public-Key: (2048 bit)
                Modulus:
                    00:9b:ba:e5:95:61:78:8b:7c:98:f5:a2:ae:8f:39:
                    49:d8:f0:db:77:b9:78:fc:4e:e2:df:28:e0:a9:fd:
                    6f:66:ff:4c:0e:fe:e0:11:bb:78:20:51:42:3d:d7:
                    51:52:a1:96:ab:55:a6:f2:9b:69:c4:56:6c:8f:49:
                    b2:3b:d4:89:62:1d:1c:61:36:f4:e5:87:13:f9:ea:
                    f9:3e:c0:85:b1:da:05:5f:dc:54:4c:0b:47:43:14:
                    61:3a:17:cf:94:de:bd:e7:5f:cf:28:51:31:bd:bc:
                    1e:ad:0d:a3:cd:bc:3d:53:a3:67:e0:dd:37:af:a5:
                    51:44:79:c7:22:60:86:a5:52:87:1c:1d:4b:59:09:
                    9f:a2:48:ea:3c:54:72:fe:6d:f2:9e:c7:48:a9:6d:
                    64:47:42:f4:e0:c8:1f:9f:2a:5f:ca:77:71:34:c7:
                    df:2c:bb:72:e5:a3:aa:b8:2b:61:fc:99:9e:6d:b0:
                    89:a1:57:5f:c9:91:5e:61:9b:25:f3:b8:66:ac:9a:
                    15:a3:d2:1a:60:bc:83:08:69:db:0e:1b:0e:52:53:
                    d0:9b:d3:f1:45:93:ac:d1:e3:c5:22:ad:d0:fb:2f:
                    8e:05:ba:47:1c:35:c4:46:d4:78:0b:5d:bd:39:68:
                    22:cd:5d:22:a5:0b:6a:f4:9d:67:46:c9:e2:53:ec:
                    25:67
                Exponent: 65537 (0x10001)
        X509v3 extensions:
            X509v3 Basic Constraints: 
                CA:FALSE
            X509v3 Subject Key Identifier: 
                BF:2D:11:1B:9B:C5:B4:A9:01:B5:63:CE:FE:A8:E4:6A:03:55:1D:88
            X509v3 Authority Key Identifier: 
                keyid:8D:69:A0:AD:D2:93:9F:B9:90:98:C4:35:27:66:1F:63:5B:01:88:A8
                DirName:/CN=Easy-RSA CA
                serial:64:9B:9F:A2:17:F2:04:81:2E:93:C7:9E:59:1F:DF:1F:CB:5B:0B:B6
            X509v3 Extended Key Usage: 
                TLS Web Client Authentication
            X509v3 Key Usage: 
                Digital Signature
    Signature Algorithm: sha256WithRSAEncryption
    Signature Value:
        52:d6:f7:66:13:a6:ca:7e:38:ec:eb:5c:7a:5b:40:a8:55:5d:
        b7:89:ab:c3:59:f5:40:52:e8:45:d5:e1:c2:c1:21:60:98:20:
        55:b5:35:d3:59:f1:18:86:97:0b:58:5c:99:00:96:14:12:33:
        9b:e2:72:98:d3:6d:fd:aa:e2:4f:52:49:55:c8:22:76:79:2d:
        ae:45:24:a3:b6:e7:75:36:c6:ea:f2:37:05:2a:cc:ab:dc:8c:
        6c:f3:f7:e5:a6:59:db:25:85:29:f3:fb:2b:d4:74:4e:72:90:
        b4:66:e8:d2:39:50:10:39:89:a8:bf:4e:f2:5a:79:9c:d0:66:
        9f:54:40:ed:fc:6e:4a:b1:d3:4c:68:d0:78:37:b1:67:b3:21:
        ed:52:fb:93:28:53:57:dc:c9:ba:87:b5:de:d1:4f:8f:f1:09:
        b6:d4:77:ee:f6:4d:92:e6:68:8d:d3:4b:4c:5a:91:e8:af:87:
        bc:82:b3:c3:39:0e:46:d4:ad:83:88:3e:b0:3a:de:c4:fe:43:
        a4:02:90:ac:70:0a:81:59:71:0c:01:4d:9a:d4:ac:a3:87:e8:
        c7:1f:2c:8b:8b:be:5b:bf:85:27:50:6d:ec:ef:77:a3:56:ad:
        8b:85:e1:7b:c1:97:5b:da:46:4d:44:55:06:51:0c:a6:ca:b5:
        1d:74:64:56
-----BEGIN CERTIFICATE-----
MIIDZjCCAk6gAwIBAgIRAJ3wYfkF8T+Sugqm4hzXw5IwDQYJKoZIhvcNAQELBQAw
FjEUMBIGA1UEAwwLRWFzeS1SU0EgQ0EwIBcNMjMxMjMwMDg0MDQ5WhgPMjEyMzEy
MDYwODQwNDlaMCAxHjAcBgNVBAMMFWhvbWVjbGllbnRfcGFfd2luZG93czCCASIw
DQYJKoZIhvcNAQEBBQADggEPADCCAQoCggEBAJu65ZVheIt8mPWiro85Sdjw23e5
ePxO4t8o4Kn9b2b/TA7+4BG7eCBRQj3XUVKhlqtVpvKbacRWbI9JsjvUiWIdHGE2
9OWHE/nq+T7AhbHaBV/cVEwLR0MUYToXz5TevedfzyhRMb28Hq0No828PVOjZ+Dd
N6+lUUR5xyJghqVShxwdS1kJn6JI6jxUcv5t8p7HSKltZEdC9ODIH58qX8p3cTTH
3yy7cuWjqrgrYfyZnm2wiaFXX8mRXmGbJfO4ZqyaFaPSGmC8gwhp2w4bDlJT0JvT
8UWTrNHjxSKt0PsvjgW6Rxw1xEbUeAtdvTloIs1dIqULavSdZ0bJ4lPsJWcCAwEA
AaOBojCBnzAJBgNVHRMEAjAAMB0GA1UdDgQWBBS/LREbm8W0qQG1Y87+qORqA1Ud
iDBRBgNVHSMESjBIgBSNaaCt0pOfuZCYxDUnZh9jWwGIqKEapBgwFjEUMBIGA1UE
AwwLRWFzeS1SU0EgQ0GCFGSbn6IX8gSBLpPHnlkf3x/LWwu2MBMGA1UdJQQMMAoG
CCsGAQUFBwMCMAsGA1UdDwQEAwIHgDANBgkqhkiG9w0BAQsFAAOCAQEAUtb3ZhOm
yn447OtceltAqFVdt4mrw1n1QFLoRdXhwsEhYJggVbU101nxGIaXC1hcmQCWFBIz
m+JymNNt/ariT1JJVcgidnktrkUko7bndTbG6vI3BSrMq9yMbPP35aZZ2yWFKfP7
K9R0TnKQtGbo0jlQEDmJqL9O8lp5nNBmn1RA7fxuSrHTTGjQeDexZ7Mh7VL7kyhT
V9zJuoe13tFPj/EJttR37vZNkuZojdNLTFqR6K+HvIKzwzkORtStg4g+sDrexP5D
pAKQrHAKgVlxDAFNmtSso4foxx8si4u+W7+FJ1Bt7O93o1ati4Xhe8GXW9pGTURV
BlEMpsq1HXRkVg==
-----END CERTIFICATE-----
