Certificate:
    Data:
        Version: 3 (0x2)
        Serial Number:
            ad:c6:c5:d4:d7:6d:5d:f4:40:6f:e8:90:ef:91:a9:31
        Signature Algorithm: sha256WithRSAEncryption
        Issuer: CN=Easy-RSA CA
        Validity
            Not Before: Feb  4 16:44:30 2024 GMT
            Not After : Jan 11 16:44:30 2124 GMT
        Subject: CN=jienyclient406
        Subject Public Key Info:
            Public Key Algorithm: rsaEncryption
                Public-Key: (2048 bit)
                Modulus:
                    00:a3:9e:48:8d:53:bb:76:c8:af:63:8b:8e:77:68:
                    f1:1b:4a:e1:e3:d9:d8:ed:c8:9f:af:a9:f8:d4:17:
                    4d:d8:95:8a:ba:1a:5c:32:3a:64:30:c3:3a:14:9d:
                    ff:85:94:5c:bf:28:65:a6:e3:03:39:0e:f4:3a:9a:
                    c0:88:ec:e0:e6:fe:7f:83:8f:8c:9d:0f:fd:97:f2:
                    1f:5a:0e:e5:43:55:28:17:ae:69:2b:16:16:33:7c:
                    01:8d:0b:67:91:e1:ae:b2:4f:44:40:45:a1:94:a4:
                    47:46:11:2c:af:13:d6:a7:9e:8c:bc:d4:1a:97:11:
                    f7:87:77:1d:80:bd:5b:a6:98:c6:f4:51:98:bf:36:
                    26:7a:9e:3b:e8:ef:74:03:0d:99:81:b7:5c:f6:62:
                    d8:dc:0a:e0:99:ab:0a:1b:5f:41:d8:84:a9:67:2b:
                    be:ba:5d:b1:15:e7:8f:fc:b8:13:d8:78:29:af:b6:
                    fc:b3:2a:c9:6d:69:71:66:3f:a3:2c:1b:82:b9:8e:
                    16:24:3e:12:20:08:bc:32:50:f8:42:25:52:fa:4e:
                    c3:2c:83:8b:a6:90:36:dd:e9:f1:92:4d:4d:84:9c:
                    a0:1f:84:de:d3:3b:59:b6:96:08:d7:8e:71:ca:7a:
                    4e:ca:49:ed:b4:a0:32:a1:f7:f6:12:50:59:3a:1f:
                    c8:33
                Exponent: 65537 (0x10001)
        X509v3 extensions:
            X509v3 Basic Constraints: 
                CA:FALSE
            X509v3 Subject Key Identifier: 
                E5:85:89:6E:F8:63:5D:85:C1:BC:6D:2A:6D:E5:48:AB:C7:FF:F8:C4
            X509v3 Authority Key Identifier: 
                keyid:8D:69:A0:AD:D2:93:9F:B9:90:98:C4:35:27:66:1F:63:5B:01:88:A8
                DirName:/CN=Easy-RSA CA
                serial:64:9B:9F:A2:17:F2:04:81:2E:93:C7:9E:59:1F:DF:1F:CB:5B:0B:B6
            X509v3 Extended Key Usage: 
                TLS Web Client Authentication
            X509v3 Key Usage: 
                Digital Signature
    Signature Algorithm: sha256WithRSAEncryption
    Signature Value:
        7a:d1:07:11:61:79:78:c2:23:75:bd:92:1d:f3:81:dd:dd:1d:
        22:f2:d3:30:d3:1e:4f:3d:9f:b4:4b:75:a8:f8:96:da:88:f2:
        79:8c:fc:f5:2b:71:3a:3c:1b:80:16:2b:2a:d1:d1:a0:74:c1:
        12:63:df:5b:2e:dc:cc:97:44:86:62:1a:5b:32:8a:35:b8:70:
        b1:d8:5f:17:2c:63:42:98:75:c9:bc:46:69:ee:19:e5:9b:c2:
        62:81:f4:3b:4e:65:9d:24:5e:5a:36:d8:2b:cc:e5:68:95:00:
        21:ba:3d:77:1d:a5:4d:10:d0:71:6c:91:f9:2a:fe:12:12:c2:
        28:ed:d3:7a:7f:59:e6:f4:61:a2:b7:ce:0b:bb:37:e8:94:15:
        dd:95:d3:fa:76:47:ad:20:20:2d:bb:28:b7:80:d3:3c:05:1b:
        4a:76:c9:2f:5e:18:56:36:6a:e6:7a:60:43:16:f3:da:ed:af:
        e3:30:0a:e8:68:80:68:b1:be:14:42:a6:89:ce:55:28:0d:2f:
        19:f8:32:2f:1c:0b:bd:8e:d0:ae:e8:5f:f5:6a:a4:53:bf:dd:
        2c:59:b2:81:87:ae:fd:c3:37:5c:60:f7:75:2d:7c:c0:6d:84:
        a0:ca:9b:96:61:75:cc:35:2a:c7:66:f9:0b:f1:d9:af:de:48:
        5c:77:4b:c6
-----BEGIN CERTIFICATE-----
MIIDXzCCAkegAwIBAgIRAK3GxdTXbV30QG/okO+RqTEwDQYJKoZIhvcNAQELBQAw
FjEUMBIGA1UEAwwLRWFzeS1SU0EgQ0EwIBcNMjQwMjA0MTY0NDMwWhgPMjEyNDAx
MTExNjQ0MzBaMBkxFzAVBgNVBAMMDmppZW55Y2xpZW50NDA2MIIBIjANBgkqhkiG
9w0BAQEFAAOCAQ8AMIIBCgKCAQEAo55IjVO7dsivY4uOd2jxG0rh49nY7cifr6n4
1BdN2JWKuhpcMjpkMMM6FJ3/hZRcvyhlpuMDOQ70OprAiOzg5v5/g4+MnQ/9l/If
Wg7lQ1UoF65pKxYWM3wBjQtnkeGusk9EQEWhlKRHRhEsrxPWp56MvNQalxH3h3cd
gL1bppjG9FGYvzYmep476O90Aw2Zgbdc9mLY3ArgmasKG19B2ISpZyu+ul2xFeeP
/LgT2Hgpr7b8syrJbWlxZj+jLBuCuY4WJD4SIAi8MlD4QiVS+k7DLIOLppA23enx
kk1NhJygH4Te0ztZtpYI145xynpOyknttKAyoff2ElBZOh/IMwIDAQABo4GiMIGf
MAkGA1UdEwQCMAAwHQYDVR0OBBYEFOWFiW74Y12FwbxtKm3lSKvH//jEMFEGA1Ud
IwRKMEiAFI1poK3Sk5+5kJjENSdmH2NbAYiooRqkGDAWMRQwEgYDVQQDDAtFYXN5
LVJTQSBDQYIUZJufohfyBIEuk8eeWR/fH8tbC7YwEwYDVR0lBAwwCgYIKwYBBQUH
AwIwCwYDVR0PBAQDAgeAMA0GCSqGSIb3DQEBCwUAA4IBAQB60QcRYXl4wiN1vZId
84Hd3R0i8tMw0x5PPZ+0S3Wo+JbaiPJ5jPz1K3E6PBuAFisq0dGgdMESY99bLtzM
l0SGYhpbMoo1uHCx2F8XLGNCmHXJvEZp7hnlm8JigfQ7TmWdJF5aNtgrzOVolQAh
uj13HaVNENBxbJH5Kv4SEsIo7dN6f1nm9GGit84LuzfolBXdldP6dketICAtuyi3
gNM8BRtKdskvXhhWNmrmemBDFvPa7a/jMAroaIBosb4UQqaJzlUoDS8Z+DIvHAu9
jtCu6F/1aqRTv90sWbKBh679wzdcYPd1LXzAbYSgypuWYXXMNSrHZvkL8dmv3khc
d0vG
-----END CERTIFICATE-----
