Certificate:
    Data:
        Version: 3 (0x2)
        Serial Number:
            ff:ea:4d:50:ed:41:a1:0a:ac:1f:7c:69:50:ae:8d:80
        Signature Algorithm: sha256WithRSAEncryption
        Issuer: CN=Easy-RSA CA
        Validity
            Not Before: Feb  3 06:08:58 2024 GMT
            Not After : Jan 10 06:08:58 2124 GMT
        Subject: CN=server
        Subject Public Key Info:
            Public Key Algorithm: rsaEncryption
                Public-Key: (2048 bit)
                Modulus:
                    00:fe:50:2a:e0:44:d7:6e:6f:06:51:f2:7e:5c:0c:
                    50:55:54:ba:f9:7b:41:03:36:e1:b8:63:8c:4b:ff:
                    5a:93:07:92:b6:18:08:ff:d4:aa:d6:ba:3e:d4:b9:
                    3d:4f:8a:98:87:00:7d:95:13:8e:6e:d0:2a:d2:63:
                    b2:6c:f1:99:82:9d:62:b8:5b:f6:bf:97:a8:8e:ce:
                    71:e6:3e:ed:88:d2:74:6d:e6:62:d6:b6:b2:cb:ec:
                    54:16:e1:bd:88:89:d0:bb:34:8e:1a:35:e8:c2:ae:
                    2f:bb:81:81:34:be:5c:d6:11:cc:d5:4d:b8:97:3f:
                    34:06:48:80:73:71:6f:76:eb:76:a3:6c:67:ed:f1:
                    b9:88:77:07:56:e0:e5:b6:a9:80:56:c5:61:d9:88:
                    45:78:ce:50:7a:50:02:71:e2:00:31:ee:2f:5f:84:
                    ef:ec:8d:1f:e6:fc:43:40:95:f3:07:dd:44:83:b3:
                    85:b9:73:10:bb:17:fa:33:af:8b:73:46:15:e1:b1:
                    e4:43:fe:c8:4b:38:69:a7:48:01:94:65:00:88:0e:
                    17:b8:46:68:58:a3:d1:d7:15:bc:e0:5c:11:47:a3:
                    9c:9e:59:85:ce:4b:2e:b7:17:c8:36:a3:a0:4f:da:
                    67:2d:8a:60:44:7c:f1:ab:87:33:65:d7:dc:97:55:
                    8c:69
                Exponent: 65537 (0x10001)
        X509v3 extensions:
            X509v3 Basic Constraints: 
                CA:FALSE
            X509v3 Subject Key Identifier: 
                C1:C4:8F:24:EB:12:9E:A5:17:F8:59:B4:D6:41:7A:5B:1A:84:4D:5C
            X509v3 Authority Key Identifier: 
                keyid:8D:69:A0:AD:D2:93:9F:B9:90:98:C4:35:27:66:1F:63:5B:01:88:A8
                DirName:/CN=Easy-RSA CA
                serial:64:9B:9F:A2:17:F2:04:81:2E:93:C7:9E:59:1F:DF:1F:CB:5B:0B:B6
            X509v3 Extended Key Usage: 
                TLS Web Server Authentication
            X509v3 Key Usage: 
                Digital Signature, Key Encipherment
            X509v3 Subject Alternative Name: 
                DNS:server
    Signature Algorithm: sha256WithRSAEncryption
    Signature Value:
        4e:b4:eb:04:83:84:43:c0:02:0a:ef:7a:37:86:91:4b:e4:3b:
        42:6e:13:1f:df:ed:eb:1e:a0:20:f4:e6:4a:16:9d:58:a9:bd:
        6a:a9:9d:64:e2:cb:57:b9:3d:8d:0c:7a:9e:b6:1c:21:ef:97:
        ba:84:12:49:7f:eb:77:9d:84:5b:93:c6:71:00:b1:c6:2c:96:
        f6:e2:d7:aa:0e:ec:1a:1e:d5:7b:80:25:14:c2:77:30:34:f5:
        7e:33:4a:a0:ea:0d:bb:f0:df:d3:15:b8:86:1e:63:b8:70:f9:
        7e:8e:bc:71:d6:88:d1:3f:c7:a1:00:4d:6c:17:8a:8a:2a:01:
        6c:7e:08:27:91:fb:fa:53:24:36:bd:bb:93:9f:95:74:3e:0d:
        fe:af:a0:b2:ab:6f:11:30:5a:c4:c4:7f:bc:70:2e:8a:b3:7f:
        64:59:24:b8:46:36:fc:3c:a1:5f:6c:c5:7c:66:94:34:a9:5d:
        52:e2:a7:fa:bd:9e:f1:ea:8e:66:8f:d8:8f:b2:f3:21:88:37:
        84:b7:3d:f6:d7:1a:9f:3d:cc:63:69:1c:11:93:5b:50:1b:fb:
        10:5f:28:47:17:2c:e6:e1:df:b2:ac:72:03:09:86:5c:5c:70:
        cf:fd:08:49:e5:4d:a4:ef:6f:81:78:7e:c8:1e:fb:10:ed:80:
        27:32:da:11
-----BEGIN CERTIFICATE-----
MIIDajCCAlKgAwIBAgIRAP/qTVDtQaEKrB98aVCujYAwDQYJKoZIhvcNAQELBQAw
FjEUMBIGA1UEAwwLRWFzeS1SU0EgQ0EwIBcNMjQwMjAzMDYwODU4WhgPMjEyNDAx
MTAwNjA4NThaMBExDzANBgNVBAMMBnNlcnZlcjCCASIwDQYJKoZIhvcNAQEBBQAD
ggEPADCCAQoCggEBAP5QKuBE125vBlHyflwMUFVUuvl7QQM24bhjjEv/WpMHkrYY
CP/Uqta6PtS5PU+KmIcAfZUTjm7QKtJjsmzxmYKdYrhb9r+XqI7OceY+7YjSdG3m
Yta2ssvsVBbhvYiJ0Ls0jho16MKuL7uBgTS+XNYRzNVNuJc/NAZIgHNxb3brdqNs
Z+3xuYh3B1bg5bapgFbFYdmIRXjOUHpQAnHiADHuL1+E7+yNH+b8Q0CV8wfdRIOz
hblzELsX+jOvi3NGFeGx5EP+yEs4aadIAZRlAIgOF7hGaFij0dcVvOBcEUejnJ5Z
hc5LLrcXyDajoE/aZy2KYER88auHM2XX3JdVjGkCAwEAAaOBtTCBsjAJBgNVHRME
AjAAMB0GA1UdDgQWBBTBxI8k6xKepRf4WbTWQXpbGoRNXDBRBgNVHSMESjBIgBSN
aaCt0pOfuZCYxDUnZh9jWwGIqKEapBgwFjEUMBIGA1UEAwwLRWFzeS1SU0EgQ0GC
FGSbn6IX8gSBLpPHnlkf3x/LWwu2MBMGA1UdJQQMMAoGCCsGAQUFBwMBMAsGA1Ud
DwQEAwIFoDARBgNVHREECjAIggZzZXJ2ZXIwDQYJKoZIhvcNAQELBQADggEBAE60
6wSDhEPAAgrvejeGkUvkO0JuEx/f7eseoCD05koWnVipvWqpnWTiy1e5PY0Mep62
HCHvl7qEEkl/63edhFuTxnEAscYslvbi16oO7Boe1XuAJRTCdzA09X4zSqDqDbvw
39MVuIYeY7hw+X6OvHHWiNE/x6EATWwXiooqAWx+CCeR+/pTJDa9u5OflXQ+Df6v
oLKrbxEwWsTEf7xwLoqzf2RZJLhGNvw8oV9sxXxmlDSpXVLip/q9nvHqjmaP2I+y
8yGIN4S3PfbXGp89zGNpHBGTW1Ab+xBfKEcXLObh37KscgMJhlxccM/9CEnlTaTv
b4F4fsge+xDtgCcy2hE=
-----END CERTIFICATE-----
